; Function Attrs: mustprogress uwtable
define noundef nonnull align 8 dereferenceable(32) ptr @_ZNK5arrow6Tensor8dim_nameB5cxx11Ei(ptr nocapture noundef nonnull readonly align 8 dereferenceable(112) %this, i32 noundef %i) local_unnamed_addr #0 align 2 personality ptr @__gxx_personality_v0 {
entry:
  %ref.tmp = alloca %"class.std::allocator.15", align 1
  %ref.tmp8 = alloca %"class.arrow::util::ArrowLog", align 8
  %0 = load atomic i8, ptr @_ZGVZNK5arrow6Tensor8dim_nameB5cxx11EiE6kEmptyB5cxx11 acquire, align 8
  %guard.uninitialized = icmp eq i8 %0, 0
  br i1 %guard.uninitialized, label %init.check, label %init.end, !prof !48

init.check:                                       ; preds = %entry
  %1 = tail call i32 @__cxa_guard_acquire(ptr nonnull @_ZGVZNK5arrow6Tensor8dim_nameB5cxx11EiE6kEmptyB5cxx11) #22
  %tobool.not = icmp eq i32 %1, 0
  br i1 %tobool.not, label %init.end, label %init

init:                                             ; preds = %init.check
  call void @_ZNSaIcEC1Ev(ptr noundef nonnull align 1 dereferenceable(1) %ref.tmp) #22
  invoke void @_ZNSt7__cxx1112basic_stringIcSt11char_traitsIcESaIcEEC2IS3_EEPKcRKS3_(ptr noundef nonnull align 8 dereferenceable(32) @_ZZNK5arrow6Tensor8dim_nameB5cxx11EiE6kEmptyB5cxx11, ptr noundef nonnull @.str.11, ptr noundef nonnull align 1 dereferenceable(1) %ref.tmp)
          to label %invoke.cont unwind label %lpad

invoke.cont:                                      ; preds = %init
  call void @_ZNSaIcED1Ev(ptr noundef nonnull align 1 dereferenceable(1) %ref.tmp) #22
  %2 = call i32 @__cxa_atexit(ptr nonnull @_ZNSt7__cxx1112basic_stringIcSt11char_traitsIcESaIcEED1Ev, ptr nonnull @_ZZNK5arrow6Tensor8dim_nameB5cxx11EiE6kEmptyB5cxx11, ptr nonnull @__dso_handle) #22
  call void @__cxa_guard_release(ptr nonnull @_ZGVZNK5arrow6Tensor8dim_nameB5cxx11EiE6kEmptyB5cxx11) #22
  br label %init.end

init.end:                                         ; preds = %invoke.cont, %init.check, %entry
  %dim_names_ = getelementptr inbounds i8, ptr %this, i64 88
  %_M_finish.i = getelementptr inbounds i8, ptr %this, i64 96
  %3 = load ptr, ptr %_M_finish.i, align 8
  %4 = load ptr, ptr %dim_names_, align 8
  %cmp = icmp eq ptr %3, %4
  br i1 %cmp, label %return, label %if.else

lpad:                                             ; preds = %init
  %5 = landingpad { ptr, i32 }
          cleanup
  call void @_ZNSaIcED1Ev(ptr noundef nonnull align 1 dereferenceable(1) %ref.tmp) #22
  call void @__cxa_guard_abort(ptr nonnull @_ZGVZNK5arrow6Tensor8dim_nameB5cxx11EiE6kEmptyB5cxx11) #22
  br label %eh.resume

if.else:                                          ; preds = %init.end
  %sub.ptr.rhs.cast.i = ptrtoint ptr %4 to i64
  %sub.ptr.lhs.cast.i = ptrtoint ptr %3 to i64
  %sub.ptr.sub.i = sub i64 %sub.ptr.lhs.cast.i, %sub.ptr.rhs.cast.i
  %sub.ptr.div.i = lshr exact i64 %sub.ptr.sub.i, 5
  %conv = trunc i64 %sub.ptr.div.i to i32
  %cmp4.not = icmp sgt i32 %conv, %i
  br i1 %cmp4.not, label %cleanup.done, label %cond.false

cond.false:                                       ; preds = %if.else
  call void @_ZN5arrow4util8ArrowLogC1EPKciNS0_13ArrowLogLevelE(ptr noundef nonnull align 8 dereferenceable(17) %ref.tmp8, ptr noundef nonnull @.str.3, i32 noundef 250, i32 noundef 3)
  %vtable.i = load ptr, ptr %ref.tmp8, align 8
  %vfn.i = getelementptr inbounds i8, ptr %vtable.i, i64 16
  %6 = load ptr, ptr %vfn.i, align 8
  %call.i8 = invoke noundef zeroext i1 %6(ptr noundef nonnull align 8 dereferenceable(8) %ref.tmp8)
          to label %call.i.noexc unwind label %lpad9

call.i.noexc:                                     ; preds = %cond.false
  br i1 %call.i8, label %if.then.i, label %cleanup.action

if.then.i:                                        ; preds = %call.i.noexc
  %vtable2.i = load ptr, ptr %ref.tmp8, align 8
  %vfn3.i = getelementptr inbounds i8, ptr %vtable2.i, i64 24
  %7 = load ptr, ptr %vfn3.i, align 8
  %call4.i9 = invoke noundef nonnull align 8 dereferenceable(8) ptr %7(ptr noundef nonnull align 8 dereferenceable(8) %ref.tmp8)
          to label %call4.i.noexc unwind label %lpad9

call4.i.noexc:                                    ; preds = %if.then.i
  %call5.i10 = invoke noundef nonnull align 8 dereferenceable(8) ptr @_ZStlsISt11char_traitsIcEERSt13basic_ostreamIcT_ES5_PKc(ptr noundef nonnull align 8 dereferenceable(8) %call4.i9, ptr noundef nonnull @.str.12)
          to label %cleanup.action unwind label %lpad9

cleanup.action:                                   ; preds = %call4.i.noexc, %call.i.noexc
  call void @_ZN5arrow4util8ArrowLogD1Ev(ptr noundef nonnull align 8 dereferenceable(17) %ref.tmp8) #22
  %.pre = load ptr, ptr %dim_names_, align 8
  br label %cleanup.done

cleanup.done:                                     ; preds = %if.else, %cleanup.action
  %8 = phi ptr [ %4, %if.else ], [ %.pre, %cleanup.action ]
  %conv17 = sext i32 %i to i64
  %add.ptr.i = getelementptr inbounds %"class.std::__cxx11::basic_string", ptr %8, i64 %conv17
  br label %return

lpad9:                                            ; preds = %call4.i.noexc, %if.then.i, %cond.false
  %9 = landingpad { ptr, i32 }
          cleanup
  call void @_ZN5arrow4util8ArrowLogD1Ev(ptr noundef nonnull align 8 dereferenceable(17) %ref.tmp8) #22
  br label %eh.resume

return:                                           ; preds = %init.end, %cleanup.done
  %retval.0 = phi ptr [ %add.ptr.i, %cleanup.done ], [ @_ZZNK5arrow6Tensor8dim_nameB5cxx11EiE6kEmptyB5cxx11, %init.end ]
  ret ptr %retval.0

eh.resume:                                        ; preds = %lpad9, %lpad
  %.pn = phi { ptr, i32 } [ %9, %lpad9 ], [ %5, %lpad ]
  resume { ptr, i32 } %.pn
}